; Function Attrs: null_pointer_is_valid sspstrong uwtable
define internal i32 @dissect_camel_AChBillingChargingCharacteristics(i1 noundef zeroext %0, ptr noundef %1, i32 noundef %2, ptr noundef %3, ptr noundef %4, i32 noundef %5) #0 {
  %7 = alloca ptr, align 8
  call void @llvm.lifetime.start.p0(i64 8, ptr nonnull %7) #12
  %8 = call i32 @dissect_ber_octet_string(i1 noundef zeroext %0, ptr noundef %3, ptr noundef %4, ptr noundef %1, i32 noundef %2, i32 noundef %5, ptr noundef nonnull %7)
  %9 = load ptr, ptr %7, align 8
  %.not = icmp eq ptr %9, null
  br i1 %.not, label %25, label %10

10:                                               ; preds = %6
  %11 = getelementptr inbounds nuw i8, ptr %3, i64 24
  %12 = load ptr, ptr %11, align 8
  %13 = load i32, ptr @ett_camel_CAMEL_AChBillingChargingCharacteristics, align 4
  %14 = call ptr @proto_item_add_subtree(ptr noundef %12, i32 noundef %13)
  %15 = load i32, ptr @camel_ver, align 4
  %16 = add i32 %15, -1
  %or.cond = icmp ult i32 %16, 2
  %17 = load ptr, ptr %7, align 8
  %18 = load i32, ptr @hf_camel_CAMEL_AChBillingChargingCharacteristics, align 4
  br i1 %or.cond, label %19, label %22

19:                                               ; preds = %10
  %20 = load i32, ptr @ett_camel_CAMEL_AChBillingChargingCharacteristicsV2, align 4
  %21 = call i32 @dissect_ber_choice(ptr noundef %3, ptr noundef %14, ptr noundef %17, i32 noundef 0, ptr noundef nonnull @CAMEL_AChBillingChargingCharacteristicsV2_choice, i32 noundef %18, i32 noundef %20, ptr noundef null)
  br label %25

22:                                               ; preds = %10
  %23 = load i32, ptr @ett_camel_CAMEL_AChBillingChargingCharacteristics, align 4
  %24 = call i32 @dissect_ber_choice(ptr noundef %3, ptr noundef %14, ptr noundef %17, i32 noundef 0, ptr noundef nonnull @CAMEL_AChBillingChargingCharacteristics_choice, i32 noundef %18, i32 noundef %23, ptr noundef null)
  br label %25

25:                                               ; preds = %6, %22, %19
  %.0 = phi i32 [ %21, %19 ], [ %8, %22 ], [ %8, %6 ]
  call void @llvm.lifetime.end.p0(i64 8, ptr nonnull %7) #12
  ret i32 %.0
}